target datalayout = "e-m:e-p270:32:32-p271:32:32-p272:64:64-i64:64-i128:128-f80:128-n8:16:32:64-S128"
target triple = "x86_64-pc-linux-gnu"

%struct.timeval = type { i64, i64 }
%struct.__va_list_tag = type { i32, i32, ptr, ptr }
%struct._logentry = type { i32, i8, i16, i64, %struct.timeval, i32, [0 x %union.anon] }
%union.anon = type { i8 }
%struct.logentry_item_store = type { i32, i32, i32, i8, i8, i32, i32, [0 x i8] }

@current_time = external global i32, align 4

; Function Attrs: nounwind uwtable
define internal void @_logger_log_item_store(ptr noundef %0, ptr noundef %1, ptr noundef %2, ptr noundef %3) #0 {
  %5 = alloca ptr, align 8
  %6 = alloca ptr, align 8
  %7 = alloca ptr, align 8
  %8 = alloca ptr, align 8
  %9 = alloca i32, align 4
  %10 = alloca i32, align 4
  %11 = alloca ptr, align 8
  %12 = alloca i32, align 4
  %13 = alloca i32, align 4
  %14 = alloca i32, align 4
  %15 = alloca i8, align 1
  %16 = alloca i32, align 4
  %17 = alloca ptr, align 8
  store ptr %0, ptr %5, align 8, !tbaa !33
  store ptr %1, ptr %6, align 8, !tbaa !30
  store ptr %2, ptr %7, align 8, !tbaa !28
  store ptr %3, ptr %8, align 8, !tbaa !105
  call void @llvm.lifetime.start.p0(i64 4, ptr %9) #11
  %18 = load ptr, ptr %8, align 8, !tbaa !105
  %19 = getelementptr inbounds nuw %struct.__va_list_tag, ptr %18, i32 0, i32 0
  %20 = load i32, ptr %19, align 8
  %21 = icmp ule i32 %20, 40
  br i1 %21, label %22, label %27

22:                                               ; preds = %4
  %23 = getelementptr inbounds nuw %struct.__va_list_tag, ptr %18, i32 0, i32 3
  %24 = load ptr, ptr %23, align 8
  %25 = getelementptr i8, ptr %24, i32 %20
  %26 = add i32 %20, 8
  store i32 %26, ptr %19, align 8
  br label %31

27:                                               ; preds = %4
  %28 = getelementptr inbounds nuw %struct.__va_list_tag, ptr %18, i32 0, i32 2
  %29 = load ptr, ptr %28, align 8
  %30 = getelementptr i8, ptr %29, i32 8
  store ptr %30, ptr %28, align 8
  br label %31

31:                                               ; preds = %27, %22
  %32 = phi ptr [ %25, %22 ], [ %29, %27 ]
  %33 = load i32, ptr %32, align 4, !tbaa !11
  store i32 %33, ptr %9, align 4, !tbaa !11
  call void @llvm.lifetime.start.p0(i64 4, ptr %10) #11
  %34 = load ptr, ptr %8, align 8, !tbaa !105
  %35 = getelementptr inbounds nuw %struct.__va_list_tag, ptr %34, i32 0, i32 0
  %36 = load i32, ptr %35, align 8
  %37 = icmp ule i32 %36, 40
  br i1 %37, label %38, label %43

38:                                               ; preds = %31
  %39 = getelementptr inbounds nuw %struct.__va_list_tag, ptr %34, i32 0, i32 3
  %40 = load ptr, ptr %39, align 8
  %41 = getelementptr i8, ptr %40, i32 %36
  %42 = add i32 %36, 8
  store i32 %42, ptr %35, align 8
  br label %47

43:                                               ; preds = %31
  %44 = getelementptr inbounds nuw %struct.__va_list_tag, ptr %34, i32 0, i32 2
  %45 = load ptr, ptr %44, align 8
  %46 = getelementptr i8, ptr %45, i32 8
  store ptr %46, ptr %44, align 8
  br label %47

47:                                               ; preds = %43, %38
  %48 = phi ptr [ %41, %38 ], [ %45, %43 ]
  %49 = load i32, ptr %48, align 4, !tbaa !11
  store i32 %49, ptr %10, align 4, !tbaa !11
  call void @llvm.lifetime.start.p0(i64 8, ptr %11) #11
  %50 = load ptr, ptr %8, align 8, !tbaa !105
  %51 = getelementptr inbounds nuw %struct.__va_list_tag, ptr %50, i32 0, i32 0
  %52 = load i32, ptr %51, align 8
  %53 = icmp ule i32 %52, 40
  br i1 %53, label %54, label %59

54:                                               ; preds = %47
  %55 = getelementptr inbounds nuw %struct.__va_list_tag, ptr %50, i32 0, i32 3
  %56 = load ptr, ptr %55, align 8
  %57 = getelementptr i8, ptr %56, i32 %52
  %58 = add i32 %52, 8
  store i32 %58, ptr %51, align 8
  br label %63

59:                                               ; preds = %47
  %60 = getelementptr inbounds nuw %struct.__va_list_tag, ptr %50, i32 0, i32 2
  %61 = load ptr, ptr %60, align 8
  %62 = getelementptr i8, ptr %61, i32 8
  store ptr %62, ptr %60, align 8
  br label %63

63:                                               ; preds = %59, %54
  %64 = phi ptr [ %57, %54 ], [ %61, %59 ]
  %65 = load ptr, ptr %64, align 8, !tbaa !63
  store ptr %65, ptr %11, align 8, !tbaa !63
  call void @llvm.lifetime.start.p0(i64 4, ptr %12) #11
  %66 = load ptr, ptr %8, align 8, !tbaa !105
  %67 = getelementptr inbounds nuw %struct.__va_list_tag, ptr %66, i32 0, i32 0
  %68 = load i32, ptr %67, align 8
  %69 = icmp ule i32 %68, 40
  br i1 %69, label %70, label %75

70:                                               ; preds = %63
  %71 = getelementptr inbounds nuw %struct.__va_list_tag, ptr %66, i32 0, i32 3
  %72 = load ptr, ptr %71, align 8
  %73 = getelementptr i8, ptr %72, i32 %68
  %74 = add i32 %68, 8
  store i32 %74, ptr %67, align 8
  br label %79

75:                                               ; preds = %63
  %76 = getelementptr inbounds nuw %struct.__va_list_tag, ptr %66, i32 0, i32 2
  %77 = load ptr, ptr %76, align 8
  %78 = getelementptr i8, ptr %77, i32 8
  store ptr %78, ptr %76, align 8
  br label %79

79:                                               ; preds = %75, %70
  %80 = phi ptr [ %73, %70 ], [ %77, %75 ]
  %81 = load i32, ptr %80, align 4, !tbaa !11
  store i32 %81, ptr %12, align 4, !tbaa !11
  call void @llvm.lifetime.start.p0(i64 4, ptr %13) #11
  %82 = load ptr, ptr %8, align 8, !tbaa !105
  %83 = getelementptr inbounds nuw %struct.__va_list_tag, ptr %82, i32 0, i32 0
  %84 = load i32, ptr %83, align 8
  %85 = icmp ule i32 %84, 40
  br i1 %85, label %86, label %91

86:                                               ; preds = %79
  %87 = getelementptr inbounds nuw %struct.__va_list_tag, ptr %82, i32 0, i32 3
  %88 = load ptr, ptr %87, align 8
  %89 = getelementptr i8, ptr %88, i32 %84
  %90 = add i32 %84, 8
  store i32 %90, ptr %83, align 8
  br label %95

91:                                               ; preds = %79
  %92 = getelementptr inbounds nuw %struct.__va_list_tag, ptr %82, i32 0, i32 2
  %93 = load ptr, ptr %92, align 8
  %94 = getelementptr i8, ptr %93, i32 8
  store ptr %94, ptr %92, align 8
  br label %95

95:                                               ; preds = %91, %86
  %96 = phi ptr [ %89, %86 ], [ %93, %91 ]
  %97 = load i32, ptr %96, align 4, !tbaa !11
  store i32 %97, ptr %13, align 4, !tbaa !11
  call void @llvm.lifetime.start.p0(i64 4, ptr %14) #11
  %98 = load ptr, ptr %8, align 8, !tbaa !105
  %99 = getelementptr inbounds nuw %struct.__va_list_tag, ptr %98, i32 0, i32 0
  %100 = load i32, ptr %99, align 8
  %101 = icmp ule i32 %100, 40
  br i1 %101, label %102, label %107

102:                                              ; preds = %95
  %103 = getelementptr inbounds nuw %struct.__va_list_tag, ptr %98, i32 0, i32 3
  %104 = load ptr, ptr %103, align 8
  %105 = getelementptr i8, ptr %104, i32 %100
  %106 = add i32 %100, 8
  store i32 %106, ptr %99, align 8
  br label %111

107:                                              ; preds = %95
  %108 = getelementptr inbounds nuw %struct.__va_list_tag, ptr %98, i32 0, i32 2
  %109 = load ptr, ptr %108, align 8
  %110 = getelementptr i8, ptr %109, i32 8
  store ptr %110, ptr %108, align 8
  br label %111

111:                                              ; preds = %107, %102
  %112 = phi ptr [ %105, %102 ], [ %109, %107 ]
  %113 = load i32, ptr %112, align 4, !tbaa !11
  store i32 %113, ptr %14, align 4, !tbaa !11
  call void @llvm.lifetime.start.p0(i64 1, ptr %15) #11
  %114 = load ptr, ptr %8, align 8, !tbaa !105
  %115 = getelementptr inbounds nuw %struct.__va_list_tag, ptr %114, i32 0, i32 0
  %116 = load i32, ptr %115, align 8
  %117 = icmp ule i32 %116, 40
  br i1 %117, label %118, label %123

118:                                              ; preds = %111
  %119 = getelementptr inbounds nuw %struct.__va_list_tag, ptr %114, i32 0, i32 3
  %120 = load ptr, ptr %119, align 8
  %121 = getelementptr i8, ptr %120, i32 %116
  %122 = add i32 %116, 8
  store i32 %122, ptr %115, align 8
  br label %127

123:                                              ; preds = %111
  %124 = getelementptr inbounds nuw %struct.__va_list_tag, ptr %114, i32 0, i32 2
  %125 = load ptr, ptr %124, align 8
  %126 = getelementptr i8, ptr %125, i32 8
  store ptr %126, ptr %124, align 8
  br label %127

127:                                              ; preds = %123, %118
  %128 = phi ptr [ %121, %118 ], [ %125, %123 ]
  %129 = load i32, ptr %128, align 4, !tbaa !11
  %130 = trunc i32 %129 to i8
  store i8 %130, ptr %15, align 1, !tbaa !36
  call void @llvm.lifetime.start.p0(i64 4, ptr %16) #11
  %131 = load ptr, ptr %8, align 8, !tbaa !105
  %132 = getelementptr inbounds nuw %struct.__va_list_tag, ptr %131, i32 0, i32 0
  %133 = load i32, ptr %132, align 8
  %134 = icmp ule i32 %133, 40
  br i1 %134, label %135, label %140

135:                                              ; preds = %127
  %136 = getelementptr inbounds nuw %struct.__va_list_tag, ptr %131, i32 0, i32 3
  %137 = load ptr, ptr %136, align 8
  %138 = getelementptr i8, ptr %137, i32 %133
  %139 = add i32 %133, 8
  store i32 %139, ptr %132, align 8
  br label %144

140:                                              ; preds = %127
  %141 = getelementptr inbounds nuw %struct.__va_list_tag, ptr %131, i32 0, i32 2
  %142 = load ptr, ptr %141, align 8
  %143 = getelementptr i8, ptr %142, i32 8
  store ptr %143, ptr %141, align 8
  br label %144

144:                                              ; preds = %140, %135
  %145 = phi ptr [ %138, %135 ], [ %142, %140 ]
  %146 = load i32, ptr %145, align 4, !tbaa !11
  store i32 %146, ptr %16, align 4, !tbaa !11
  call void @llvm.lifetime.start.p0(i64 8, ptr %17) #11
  %147 = load ptr, ptr %5, align 8, !tbaa !33
  %148 = getelementptr inbounds nuw %struct._logentry, ptr %147, i32 0, i32 6
  %149 = getelementptr inbounds [0 x %union.anon], ptr %148, i64 0, i64 0
  store ptr %149, ptr %17, align 8, !tbaa !118
  %150 = load i32, ptr %9, align 4, !tbaa !11
  %151 = load ptr, ptr %17, align 8, !tbaa !118
  %152 = getelementptr inbounds nuw %struct.logentry_item_store, ptr %151, i32 0, i32 0
  store i32 %150, ptr %152, align 4, !tbaa !11
  %153 = load i32, ptr %10, align 4, !tbaa !11
  %154 = load ptr, ptr %17, align 8, !tbaa !118
  %155 = getelementptr inbounds nuw %struct.logentry_item_store, ptr %154, i32 0, i32 1
  store i32 %153, ptr %155, align 4, !tbaa !11
  %156 = load i32, ptr %12, align 4, !tbaa !11
  %157 = trunc i32 %156 to i8
  %158 = load ptr, ptr %17, align 8, !tbaa !118
  %159 = getelementptr inbounds nuw %struct.logentry_item_store, ptr %158, i32 0, i32 3
  store i8 %157, ptr %159, align 4, !tbaa !36
  %160 = load i32, ptr %13, align 4, !tbaa !11
  %161 = load ptr, ptr %17, align 8, !tbaa !118
  %162 = getelementptr inbounds nuw %struct.logentry_item_store, ptr %161, i32 0, i32 5
  store i32 %160, ptr %162, align 4, !tbaa !11
  %163 = load i8, ptr %15, align 1, !tbaa !36
  %164 = load ptr, ptr %17, align 8, !tbaa !118
  %165 = getelementptr inbounds nuw %struct.logentry_item_store, ptr %164, i32 0, i32 4
  store i8 %163, ptr %165, align 1, !tbaa !36
  %166 = load i32, ptr %14, align 4, !tbaa !11
  %167 = icmp ne i32 %166, 0
  br i1 %167, label %168, label %174

168:                                              ; preds = %144
  %169 = load i32, ptr %14, align 4, !tbaa !11
  %170 = load volatile i32, ptr @current_time, align 4, !tbaa !11
  %171 = sub i32 %169, %170
  %172 = load ptr, ptr %17, align 8, !tbaa !118
  %173 = getelementptr inbounds nuw %struct.logentry_item_store, ptr %172, i32 0, i32 2
  store i32 %171, ptr %173, align 4, !tbaa !11
  br label %177

174:                                              ; preds = %144
  %175 = load ptr, ptr %17, align 8, !tbaa !118
  %176 = getelementptr inbounds nuw %struct.logentry_item_store, ptr %175, i32 0, i32 2
  store i32 0, ptr %176, align 4, !tbaa !11
  br label %177

177:                                              ; preds = %174, %168
  %178 = load ptr, ptr %17, align 8, !tbaa !118
  %179 = getelementptr inbounds nuw %struct.logentry_item_store, ptr %178, i32 0, i32 7
  %180 = getelementptr inbounds [0 x i8], ptr %179, i64 0, i64 0
  %181 = load ptr, ptr %11, align 8, !tbaa !63
  %182 = load i32, ptr %12, align 4, !tbaa !11
  %183 = sext i32 %182 to i64
  call void @llvm.memcpy.p0.p0.i64(ptr align 4 %180, ptr align 1 %181, i64 %183, i1 false)
  %184 = load i32, ptr %16, align 4, !tbaa !11
  %185 = load ptr, ptr %17, align 8, !tbaa !118
  %186 = getelementptr inbounds nuw %struct.logentry_item_store, ptr %185, i32 0, i32 6
  store i32 %184, ptr %186, align 4, !tbaa !11
  %187 = load i32, ptr %12, align 4, !tbaa !11
  %188 = sext i32 %187 to i64
  %189 = add i64 24, %188
  %190 = trunc i64 %189 to i32
  %191 = load ptr, ptr %5, align 8, !tbaa !33
  %192 = getelementptr inbounds nuw %struct._logentry, ptr %191, i32 0, i32 5
  store i32 %190, ptr %192, align 8, !tbaa !11
  call void @llvm.lifetime.end.p0(i64 8, ptr %17) #11
  call void @llvm.lifetime.end.p0(i64 4, ptr %16) #11
  call void @llvm.lifetime.end.p0(i64 1, ptr %15) #11
  call void @llvm.lifetime.end.p0(i64 4, ptr %14) #11
  call void @llvm.lifetime.end.p0(i64 4, ptr %13) #11
  call void @llvm.lifetime.end.p0(i64 4, ptr %12) #11
  call void @llvm.lifetime.end.p0(i64 8, ptr %11) #11
  call void @llvm.lifetime.end.p0(i64 4, ptr %10) #11
  call void @llvm.lifetime.end.p0(i64 4, ptr %9) #11
  ret void
}