; Function Attrs: mustprogress nofree norecurse nounwind willreturn uwtable
define internal void @_logger_log_item_store(ptr noundef writeonly captures(none) initializes((32, 50), (52, 60)) %0, ptr readnone captures(none) %1, ptr readnone captures(none) %2, ptr noundef captures(none) %3) #13 {
  %5 = load i32, ptr %3, align 8
  %6 = icmp ult i32 %5, 41
  br i1 %6, label %11, label %.thread

.thread:                                          ; preds = %4
  %7 = getelementptr inbounds nuw i8, ptr %3, i64 8
  %8 = load ptr, ptr %7, align 8
  %9 = getelementptr i8, ptr %8, i64 8
  store ptr %9, ptr %7, align 8
  %10 = load i32, ptr %8, align 4, !tbaa !9
  br label %.thread45

11:                                               ; preds = %4
  %12 = getelementptr inbounds nuw i8, ptr %3, i64 16
  %13 = load ptr, ptr %12, align 8
  %14 = zext nneg i32 %5 to i64
  %15 = getelementptr i8, ptr %13, i64 %14
  %16 = add nuw nsw i32 %5, 8
  store i32 %16, ptr %3, align 8
  %17 = load i32, ptr %15, align 4, !tbaa !9
  %18 = icmp ult i32 %5, 33
  br i1 %18, label %24, label %.thread45

.thread45:                                        ; preds = %11, %.thread
  %19 = phi i32 [ %10, %.thread ], [ %17, %11 ]
  %20 = getelementptr inbounds nuw i8, ptr %3, i64 8
  %21 = load ptr, ptr %20, align 8
  %22 = getelementptr i8, ptr %21, i64 8
  store ptr %22, ptr %20, align 8
  %23 = load i32, ptr %21, align 4, !tbaa !9
  br label %.thread48

24:                                               ; preds = %11
  %25 = getelementptr inbounds nuw i8, ptr %3, i64 16
  %26 = load ptr, ptr %25, align 8
  %27 = zext nneg i32 %16 to i64
  %28 = getelementptr i8, ptr %26, i64 %27
  %29 = add nuw nsw i32 %5, 16
  store i32 %29, ptr %3, align 8
  %30 = load i32, ptr %28, align 4, !tbaa !9
  %31 = icmp ult i32 %5, 25
  br i1 %31, label %38, label %.thread48

.thread48:                                        ; preds = %24, %.thread45
  %32 = phi i32 [ %23, %.thread45 ], [ %30, %24 ]
  %33 = phi i32 [ %19, %.thread45 ], [ %17, %24 ]
  %34 = getelementptr inbounds nuw i8, ptr %3, i64 8
  %35 = load ptr, ptr %34, align 8
  %36 = getelementptr i8, ptr %35, i64 8
  store ptr %36, ptr %34, align 8
  %37 = load ptr, ptr %35, align 8, !tbaa !95
  br label %.thread51

38:                                               ; preds = %24
  %39 = getelementptr inbounds nuw i8, ptr %3, i64 16
  %40 = load ptr, ptr %39, align 8
  %41 = zext nneg i32 %29 to i64
  %42 = getelementptr i8, ptr %40, i64 %41
  %43 = add nuw nsw i32 %5, 24
  store i32 %43, ptr %3, align 8
  %44 = load ptr, ptr %42, align 8, !tbaa !95
  %45 = icmp ult i32 %5, 17
  br i1 %45, label %53, label %.thread51

.thread51:                                        ; preds = %38, %.thread48
  %46 = phi ptr [ %37, %.thread48 ], [ %44, %38 ]
  %47 = phi i32 [ %33, %.thread48 ], [ %17, %38 ]
  %48 = phi i32 [ %32, %.thread48 ], [ %30, %38 ]
  %49 = getelementptr inbounds nuw i8, ptr %3, i64 8
  %50 = load ptr, ptr %49, align 8
  %51 = getelementptr i8, ptr %50, i64 8
  store ptr %51, ptr %49, align 8
  %52 = load i32, ptr %50, align 4, !tbaa !9
  br label %.thread54

53:                                               ; preds = %38
  %54 = getelementptr inbounds nuw i8, ptr %3, i64 16
  %55 = load ptr, ptr %54, align 8
  %56 = zext nneg i32 %43 to i64
  %57 = getelementptr i8, ptr %55, i64 %56
  %58 = or disjoint i32 %5, 32
  store i32 %58, ptr %3, align 8
  %59 = load i32, ptr %57, align 4, !tbaa !9
  %60 = icmp samesign ult i32 %58, 41
  br i1 %60, label %69, label %.thread54

.thread54:                                        ; preds = %53, %.thread51
  %61 = phi i32 [ %52, %.thread51 ], [ %59, %53 ]
  %62 = phi i32 [ %48, %.thread51 ], [ %30, %53 ]
  %63 = phi i32 [ %47, %.thread51 ], [ %17, %53 ]
  %64 = phi ptr [ %46, %.thread51 ], [ %44, %53 ]
  %65 = getelementptr inbounds nuw i8, ptr %3, i64 8
  %66 = load ptr, ptr %65, align 8
  %67 = getelementptr i8, ptr %66, i64 8
  store ptr %67, ptr %65, align 8
  %68 = load i32, ptr %66, align 4, !tbaa !9
  br label %82

69:                                               ; preds = %53
  %70 = getelementptr inbounds nuw i8, ptr %3, i64 16
  %71 = load ptr, ptr %70, align 8
  %72 = zext nneg i32 %58 to i64
  %73 = getelementptr i8, ptr %71, i64 %72
  %74 = add nuw nsw i32 %5, 40
  store i32 %74, ptr %3, align 8
  %75 = load i32, ptr %73, align 4, !tbaa !9
  %76 = icmp eq i32 %5, 0
  br i1 %76, label %77, label %82

77:                                               ; preds = %69
  %78 = getelementptr inbounds nuw i8, ptr %3, i64 16
  %79 = load ptr, ptr %78, align 8
  %80 = zext nneg i32 %74 to i64
  %81 = getelementptr i8, ptr %79, i64 %80
  store i32 48, ptr %3, align 8
  br label %91

82:                                               ; preds = %.thread54, %69
  %83 = phi i32 [ %68, %.thread54 ], [ %75, %69 ]
  %84 = phi ptr [ %64, %.thread54 ], [ %44, %69 ]
  %85 = phi i32 [ %63, %.thread54 ], [ %17, %69 ]
  %86 = phi i32 [ %62, %.thread54 ], [ %30, %69 ]
  %87 = phi i32 [ %61, %.thread54 ], [ %59, %69 ]
  %88 = getelementptr inbounds nuw i8, ptr %3, i64 8
  %89 = load ptr, ptr %88, align 8
  %90 = getelementptr i8, ptr %89, i64 8
  store ptr %90, ptr %88, align 8
  br label %91

91:                                               ; preds = %82, %77
  %92 = phi i32 [ %83, %82 ], [ %75, %77 ]
  %93 = phi ptr [ %84, %82 ], [ %44, %77 ]
  %94 = phi i32 [ %85, %82 ], [ %17, %77 ]
  %95 = phi i32 [ %86, %82 ], [ %30, %77 ]
  %96 = phi i32 [ %87, %82 ], [ %59, %77 ]
  %97 = phi ptr [ %89, %82 ], [ %81, %77 ]
  %98 = load i32, ptr %97, align 4, !tbaa !9
  %99 = getelementptr inbounds nuw i8, ptr %3, i64 8
  %100 = load ptr, ptr %99, align 8
  %101 = getelementptr i8, ptr %100, i64 8
  store ptr %101, ptr %99, align 8
  %102 = load i32, ptr %100, align 4, !tbaa !9
  %103 = trunc i32 %102 to i8
  %104 = getelementptr inbounds nuw i8, ptr %3, i64 8
  %105 = getelementptr i8, ptr %100, i64 16
  store ptr %105, ptr %104, align 8
  %106 = load i32, ptr %101, align 4, !tbaa !9
  %107 = getelementptr inbounds nuw i8, ptr %0, i64 36
  store i32 %94, ptr %107, align 4, !tbaa !9
  %108 = getelementptr inbounds nuw i8, ptr %0, i64 40
  store i32 %95, ptr %108, align 4, !tbaa !9
  %109 = trunc i32 %96 to i8
  %110 = getelementptr inbounds nuw i8, ptr %0, i64 48
  store i8 %109, ptr %110, align 4, !tbaa !31
  %111 = getelementptr inbounds nuw i8, ptr %0, i64 52
  store i32 %92, ptr %111, align 4, !tbaa !9
  %112 = getelementptr inbounds nuw i8, ptr %0, i64 49
  store i8 %103, ptr %112, align 1, !tbaa !31
  %.not = icmp eq i32 %98, 0
  br i1 %.not, label %116, label %113

113:                                              ; preds = %91
  %114 = load volatile i32, ptr @current_time, align 4, !tbaa !9
  %115 = sub i32 %98, %114
  br label %116

116:                                              ; preds = %91, %113
  %.sink = phi i32 [ %115, %113 ], [ 0, %91 ]
  %117 = getelementptr inbounds nuw i8, ptr %0, i64 44
  store i32 %.sink, ptr %117, align 4, !tbaa !9
  %118 = getelementptr inbounds nuw i8, ptr %0, i64 60
  %119 = sext i32 %96 to i64
  tail call void @llvm.memcpy.p0.p0.i64(ptr nonnull align 4 %118, ptr align 1 %93, i64 %119, i1 false)
  %120 = getelementptr inbounds nuw i8, ptr %0, i64 56
  store i32 %106, ptr %120, align 4, !tbaa !9
  %121 = add i32 %96, 24
  %122 = getelementptr inbounds nuw i8, ptr %0, i64 32
  store i32 %121, ptr %122, align 8, !tbaa !9
  ret void
}